; Function Attrs: mustprogress uwtable
define hidden void @_ZN5boost3log11v2_mt_posix4coreC2Ev(ptr nocapture noundef nonnull writeonly align 8 dereferenceable(8) %0) unnamed_addr #4 align 2 personality ptr @__gxx_personality_v0 {
  %2 = tail call noalias noundef nonnull dereferenceable(136) ptr @_Znwm(i64 noundef 136) #23
  invoke void @_ZN5boost3log11v2_mt_posix4core14implementationC2Ev(ptr noundef nonnull align 8 dereferenceable(136) %2)
          to label %3 unwind label %4

3:                                                ; preds = %1
  store ptr %2, ptr %0, align 8, !tbaa !33
  ret void

4:                                                ; preds = %1
  %5 = landingpad { ptr, i32 }
          cleanup
  tail call void @_ZdlPvm(ptr noundef nonnull %2, i64 noundef 136) #24
  resume { ptr, i32 } %5
}